; Function Attrs: mustprogress nofree norecurse nosync nounwind willreturn memory(argmem: write) uwtable
define internal noundef zeroext i1 @_ZNSt17_Function_handlerIFvRN2cv6detail9VectorRefEEZNS0_4gapi4s11n12_GLOBAL__N_18initCtorIS2_St5tupleIJNS0_4util7variantIJNS5_3wip4draw4TextENSD_5FTextENSD_4RectENSD_6CircleENSD_4LineENSD_6MosaicENSD_5ImageENSD_4PolyEEEEEEJEE4initERNS0_5gimpl4DataEEUlS3_E_E10_M_managerERSt9_Any_dataRKSU_St18_Manager_operation(ptr noundef nonnull writeonly align 8 captures(none) dereferenceable(16) %0, ptr noundef nonnull align 8 dereferenceable(16) %1, i32 noundef %2) #13 align 2 personality ptr @__gxx_personality_v0 {
  switch i32 %2, label %_ZNSt14_Function_base13_Base_managerIZN2cv4gapi4s11n12_GLOBAL__N_18initCtorINS1_6detail9VectorRefESt5tupleIJNS1_4util7variantIJNS2_3wip4draw4TextENSC_5FTextENSC_4RectENSC_6CircleENSC_4LineENSC_6MosaicENSC_5ImageENSC_4PolyEEEEEEJEE4initERNS1_5gimpl4DataEEUlRS7_E_E10_M_managerERSt9_Any_dataRKSU_St18_Manager_operation.exit [
    i32 0, label %_ZNSt14_Function_base13_Base_managerIZN2cv4gapi4s11n12_GLOBAL__N_18initCtorINS1_6detail9VectorRefESt5tupleIJNS1_4util7variantIJNS2_3wip4draw4TextENSC_5FTextENSC_4RectENSC_6CircleENSC_4LineENSC_6MosaicENSC_5ImageENSC_4PolyEEEEEEJEE4initERNS1_5gimpl4DataEEUlRS7_E_E10_M_managerERSt9_Any_dataRKSU_St18_Manager_operation.exit.sink.split
    i32 1, label %4
  ]

4:                                                ; preds = %3
  br label %_ZNSt14_Function_base13_Base_managerIZN2cv4gapi4s11n12_GLOBAL__N_18initCtorINS1_6detail9VectorRefESt5tupleIJNS1_4util7variantIJNS2_3wip4draw4TextENSC_5FTextENSC_4RectENSC_6CircleENSC_4LineENSC_6MosaicENSC_5ImageENSC_4PolyEEEEEEJEE4initERNS1_5gimpl4DataEEUlRS7_E_E10_M_managerERSt9_Any_dataRKSU_St18_Manager_operation.exit.sink.split

_ZNSt14_Function_base13_Base_managerIZN2cv4gapi4s11n12_GLOBAL__N_18initCtorINS1_6detail9VectorRefESt5tupleIJNS1_4util7variantIJNS2_3wip4draw4TextENSC_5FTextENSC_4RectENSC_6CircleENSC_4LineENSC_6MosaicENSC_5ImageENSC_4PolyEEEEEEJEE4initERNS1_5gimpl4DataEEUlRS7_E_E10_M_managerERSt9_Any_dataRKSU_St18_Manager_operation.exit.sink.split: ; preds = %3, %4
  %.sink = phi ptr [ %1, %4 ], [ @_ZTIZN2cv4gapi4s11n12_GLOBAL__N_18initCtorINS_6detail9VectorRefESt5tupleIJNS_4util7variantIJNS0_3wip4draw4TextENSA_5FTextENSA_4RectENSA_6CircleENSA_4LineENSA_6MosaicENSA_5ImageENSA_4PolyEEEEEEJEE4initERNS_5gimpl4DataEEUlRS5_E_, %3 ]
  store ptr %.sink, ptr %0, align 8, !tbaa !261
  br label %_ZNSt14_Function_base13_Base_managerIZN2cv4gapi4s11n12_GLOBAL__N_18initCtorINS1_6detail9VectorRefESt5tupleIJNS1_4util7variantIJNS2_3wip4draw4TextENSC_5FTextENSC_4RectENSC_6CircleENSC_4LineENSC_6MosaicENSC_5ImageENSC_4PolyEEEEEEJEE4initERNS1_5gimpl4DataEEUlRS7_E_E10_M_managerERSt9_Any_dataRKSU_St18_Manager_operation.exit

_ZNSt14_Function_base13_Base_managerIZN2cv4gapi4s11n12_GLOBAL__N_18initCtorINS1_6detail9VectorRefESt5tupleIJNS1_4util7variantIJNS2_3wip4draw4TextENSC_5FTextENSC_4RectENSC_6CircleENSC_4LineENSC_6MosaicENSC_5ImageENSC_4PolyEEEEEEJEE4initERNS1_5gimpl4DataEEUlRS7_E_E10_M_managerERSt9_Any_dataRKSU_St18_Manager_operation.exit: ; preds = %_ZNSt14_Function_base13_Base_managerIZN2cv4gapi4s11n12_GLOBAL__N_18initCtorINS1_6detail9VectorRefESt5tupleIJNS1_4util7variantIJNS2_3wip4draw4TextENSC_5FTextENSC_4RectENSC_6CircleENSC_4LineENSC_6MosaicENSC_5ImageENSC_4PolyEEEEEEJEE4initERNS1_5gimpl4DataEEUlRS7_E_E10_M_managerERSt9_Any_dataRKSU_St18_Manager_operation.exit.sink.split, %3
  ret i1 false
}